target datalayout = "e-m:e-p270:32:32-p271:32:32-p272:64:64-i64:64-i128:128-f80:128-n8:16:32:64-S128"
target triple = "x86_64-pc-linux-gnu"

%struct.VLCElem = type { %union.anon.1 }
%union.anon.1 = type { %struct.anon }
%struct.anon = type { i16, i16 }
%struct.LevelCodes = type { ptr, ptr, ptr }
%struct.VLCInitState = type { ptr, i32 }

@__const.clv_init_static.state = private unnamed_addr constant { ptr, i32, [4 x i8] } { ptr @clv_init_static.vlc_buf, i32 16716, [4 x i8] zeroinitializer }, align 8
@dc_vlc = internal global [1104 x %struct.VLCElem] zeroinitializer, align 16
@clv_dc_syms = internal constant [127 x i8] c"\00\01\02\03\04\05\06\07\08\09\0A\0B\0C\0D\0E\0F\10\11\12\14\15nopqrstuvwxyz{|}~\13hm\17\18j\16\19defgikl\1A\1Bbc\1D\1E_a\1F^`\1C!\\] $%&XYZ[#W\22'()STUV*+,OQR-./012NP345JKLM67GHI89:DEF;C<=AB>@?", align 16
@ac_vlc = internal global [554 x %struct.VLCElem] zeroinitializer, align 16
@lev = internal global [10 x %struct.LevelCodes] zeroinitializer, align 16

; Function Attrs: cold nounwind optsize uwtable
define internal void @clv_init_static() #0 {
  %1 = alloca %struct.VLCInitState, align 8
  %2 = alloca ptr, align 8
  %3 = alloca ptr, align 8
  %4 = alloca i32, align 4
  %5 = alloca i32, align 4
  %6 = alloca i32, align 4
  call void @llvm.lifetime.start.p0(i64 16, ptr %1) #11
  call void @llvm.memcpy.p0.p0.i64(ptr align 8 %1, ptr align 8 @__const.clv_init_static.state, i64 16, i1 false)
  call void @llvm.lifetime.start.p0(i64 8, ptr %2) #11
  store ptr @clv_mv_syms, ptr %2, align 8, !tbaa !87
  call void @llvm.lifetime.start.p0(i64 8, ptr %3) #11
  store ptr @clv_bias_syms, ptr %3, align 8, !tbaa !87
  call void @ff_vlc_init_table_from_lengths(ptr noundef @dc_vlc, i32 noundef 1104, i32 noundef 9, i32 noundef 127, ptr noundef @clv_dc_lens, i32 noundef 1, ptr noundef @clv_dc_syms, i32 noundef 1, i32 noundef 1, i32 noundef -63, i32 noundef 0)
  call void @ff_vlc_init_table_from_lengths(ptr noundef @ac_vlc, i32 noundef 554, i32 noundef 9, i32 noundef 104, ptr noundef @clv_ac_bits, i32 noundef 1, ptr noundef @clv_ac_syms, i32 noundef 2, i32 noundef 2, i32 noundef 0, i32 noundef 0)
  call void @llvm.lifetime.start.p0(i64 4, ptr %4) #11
  store i32 0, ptr %4, align 4, !tbaa !44
  call void @llvm.lifetime.start.p0(i64 4, ptr %5) #11
  store i32 0, ptr %5, align 4, !tbaa !44
  call void @llvm.lifetime.start.p0(i64 4, ptr %6) #11
  store i32 0, ptr %6, align 4, !tbaa !44
  br label %7

7:                                                ; preds = %61, %0
  %8 = load i32, ptr %4, align 4, !tbaa !44
  %9 = shl i32 1, %8
  %10 = and i32 879, %9
  %11 = icmp ne i32 %10, 0
  br i1 %11, label %12, label %24

12:                                               ; preds = %7
  %13 = load i32, ptr %6, align 4, !tbaa !44
  %14 = zext i32 %13 to i64
  %15 = getelementptr inbounds nuw [8 x [16 x i8]], ptr @clv_mv_len_counts, i64 0, i64 %14
  %16 = getelementptr inbounds [16 x i8], ptr %15, i64 0, i64 0
  %17 = call ptr @build_vlc(ptr noundef %1, ptr noundef %16, ptr noundef %2) #13
  %18 = load i32, ptr %4, align 4, !tbaa !44
  %19 = zext i32 %18 to i64
  %20 = getelementptr inbounds nuw [10 x %struct.LevelCodes], ptr @lev, i64 0, i64 %19
  %21 = getelementptr inbounds nuw %struct.LevelCodes, ptr %20, i32 0, i32 1
  store ptr %17, ptr %21, align 8, !tbaa !88
  %22 = load i32, ptr %6, align 4, !tbaa !44
  %23 = add i32 %22, 1
  store i32 %23, ptr %6, align 4, !tbaa !44
  br label %24

24:                                               ; preds = %12, %7
  %25 = load i32, ptr %4, align 4, !tbaa !44
  %26 = zext i32 %25 to i64
  %27 = icmp eq i64 %26, 9
  br i1 %27, label %28, label %29

28:                                               ; preds = %24
  call void @llvm.lifetime.end.p0(i64 4, ptr %6) #11
  call void @llvm.lifetime.end.p0(i64 4, ptr %5) #11
  call void @llvm.lifetime.end.p0(i64 4, ptr %4) #11
  br label %64

29:                                               ; preds = %24
  %30 = load i32, ptr %4, align 4, !tbaa !44
  %31 = shl i32 1, %30
  %32 = and i32 439, %31
  %33 = icmp ne i32 %32, 0
  br i1 %33, label %34, label %60

34:                                               ; preds = %29
  %35 = load i32, ptr %5, align 4, !tbaa !44
  %36 = zext i32 %35 to i64
  %37 = getelementptr inbounds nuw [7 x [16 x i8]], ptr @clv_flags_bits, i64 0, i64 %36
  %38 = getelementptr inbounds [16 x i8], ptr %37, i64 0, i64 0
  %39 = load i32, ptr %5, align 4, !tbaa !44
  %40 = zext i32 %39 to i64
  %41 = getelementptr inbounds nuw [7 x [16 x i8]], ptr @clv_flags_syms, i64 0, i64 %40
  %42 = getelementptr inbounds [16 x i8], ptr %41, i64 0, i64 0
  %43 = call ptr @ff_vlc_init_tables_from_lengths(ptr noundef %1, i32 noundef 9, i32 noundef 16, ptr noundef %38, i32 noundef 1, ptr noundef %42, i32 noundef 1, i32 noundef 1, i32 noundef 0, i32 noundef 0)
  %44 = load i32, ptr %4, align 4, !tbaa !44
  %45 = zext i32 %44 to i64
  %46 = getelementptr inbounds nuw [10 x %struct.LevelCodes], ptr @lev, i64 0, i64 %45
  %47 = getelementptr inbounds nuw %struct.LevelCodes, ptr %46, i32 0, i32 0
  store ptr %43, ptr %47, align 8, !tbaa !91
  %48 = load i32, ptr %5, align 4, !tbaa !44
  %49 = zext i32 %48 to i64
  %50 = getelementptr inbounds nuw [7 x [16 x i8]], ptr @clv_bias_len_counts, i64 0, i64 %49
  %51 = getelementptr inbounds [16 x i8], ptr %50, i64 0, i64 0
  %52 = call ptr @build_vlc(ptr noundef %1, ptr noundef %51, ptr noundef %3) #13
  %53 = load i32, ptr %4, align 4, !tbaa !44
  %54 = add i32 %53, 1
  %55 = zext i32 %54 to i64
  %56 = getelementptr inbounds nuw [10 x %struct.LevelCodes], ptr @lev, i64 0, i64 %55
  %57 = getelementptr inbounds nuw %struct.LevelCodes, ptr %56, i32 0, i32 2
  store ptr %52, ptr %57, align 8, !tbaa !92
  %58 = load i32, ptr %5, align 4, !tbaa !44
  %59 = add i32 %58, 1
  store i32 %59, ptr %5, align 4, !tbaa !44
  br label %60

60:                                               ; preds = %34, %29
  br label %61

61:                                               ; preds = %60
  %62 = load i32, ptr %4, align 4, !tbaa !44
  %63 = add i32 %62, 1
  store i32 %63, ptr %4, align 4, !tbaa !44
  br label %7

64:                                               ; preds = %28
  call void @llvm.lifetime.end.p0(i64 8, ptr %3) #11
  call void @llvm.lifetime.end.p0(i64 8, ptr %2) #11
  call void @llvm.lifetime.end.p0(i64 16, ptr %1) #11
  ret void
}