; Function Attrs: cold nounwind optsize uwtable
define internal void @clv_init_static() #0 {
  %1 = alloca %struct.VLCInitState, align 8
  %2 = alloca ptr, align 8
  %3 = alloca ptr, align 8
  call void @llvm.lifetime.start.p0(i64 16, ptr nonnull %1) #13
  call void @llvm.memcpy.p0.p0.i64(ptr noundef nonnull align 8 dereferenceable(16) %1, ptr noundef nonnull align 8 dereferenceable(16) @__const.clv_init_static.state, i64 16, i1 false)
  call void @llvm.lifetime.start.p0(i64 8, ptr nonnull %2) #13
  store ptr @clv_mv_syms, ptr %2, align 8, !tbaa !102
  call void @llvm.lifetime.start.p0(i64 8, ptr nonnull %3) #13
  store ptr @clv_bias_syms, ptr %3, align 8, !tbaa !102
  tail call void @ff_vlc_init_table_from_lengths(ptr noundef nonnull @dc_vlc, i32 noundef 1104, i32 noundef 9, i32 noundef 127, ptr noundef nonnull @clv_dc_lens, i32 noundef 1, ptr noundef nonnull @clv_dc_syms, i32 noundef 1, i32 noundef 1, i32 noundef -63, i32 noundef 0) #13
  tail call void @ff_vlc_init_table_from_lengths(ptr noundef nonnull @ac_vlc, i32 noundef 554, i32 noundef 9, i32 noundef 104, ptr noundef nonnull @clv_ac_bits, i32 noundef 1, ptr noundef nonnull @clv_ac_syms, i32 noundef 2, i32 noundef 2, i32 noundef 0, i32 noundef 0) #13
  br label %.outer

.outer:                                           ; preds = %19, %0
  %indvars.iv.ph = phi i64 [ %27, %19 ], [ 0, %0 ]
  %.013.ph = phi i32 [ %29, %19 ], [ 0, %0 ]
  %.0.ph = phi i32 [ %.1, %19 ], [ 0, %0 ]
  br label %4

4:                                                ; preds = %.outer, %._crit_edge
  %indvars.iv = phi i64 [ %.pre, %._crit_edge ], [ %indvars.iv.ph, %.outer ]
  %.0 = phi i32 [ %.1, %._crit_edge ], [ %.0.ph, %.outer ]
  %5 = trunc nuw nsw i64 %indvars.iv to i32
  %6 = shl nuw i32 1, %5
  %7 = and i32 %6, 879
  %.not = icmp eq i32 %7, 0
  br i1 %.not, label %14, label %8

8:                                                ; preds = %4
  %9 = zext i32 %.0 to i64
  %10 = getelementptr inbounds nuw [8 x [16 x i8]], ptr @clv_mv_len_counts, i64 0, i64 %9
  %11 = call fastcc ptr @build_vlc(ptr noundef %1, ptr noundef nonnull %10, ptr noundef %2) #15
  %12 = getelementptr inbounds nuw [10 x %struct.LevelCodes], ptr @lev, i64 0, i64 %indvars.iv, i32 1
  store ptr %11, ptr %12, align 8, !tbaa !103
  %13 = add i32 %.0, 1
  br label %14

14:                                               ; preds = %8, %4
  %.1 = phi i32 [ %13, %8 ], [ %.0, %4 ]
  %15 = icmp eq i64 %indvars.iv, 9
  br i1 %15, label %16, label %17

16:                                               ; preds = %14
  call void @llvm.lifetime.end.p0(i64 8, ptr nonnull %3) #13
  call void @llvm.lifetime.end.p0(i64 8, ptr nonnull %2) #13
  call void @llvm.lifetime.end.p0(i64 16, ptr nonnull %1) #13
  ret void

17:                                               ; preds = %14
  %18 = and i32 %6, 439
  %.not17 = icmp eq i32 %18, 0
  br i1 %.not17, label %._crit_edge, label %19

._crit_edge:                                      ; preds = %17
  %.pre = add nuw nsw i64 %indvars.iv, 1
  br label %4

19:                                               ; preds = %17
  %20 = zext i32 %.013.ph to i64
  %21 = getelementptr inbounds nuw [7 x [16 x i8]], ptr @clv_flags_bits, i64 0, i64 %20
  %22 = getelementptr inbounds nuw [7 x [16 x i8]], ptr @clv_flags_syms, i64 0, i64 %20
  %23 = call ptr @ff_vlc_init_tables_from_lengths(ptr noundef nonnull %1, i32 noundef 9, i32 noundef 16, ptr noundef nonnull %21, i32 noundef 1, ptr noundef nonnull %22, i32 noundef 1, i32 noundef 1, i32 noundef 0, i32 noundef 0) #13
  %24 = getelementptr inbounds nuw [10 x %struct.LevelCodes], ptr @lev, i64 0, i64 %indvars.iv
  store ptr %23, ptr %24, align 8, !tbaa !106
  %25 = getelementptr inbounds nuw [7 x [16 x i8]], ptr @clv_bias_len_counts, i64 0, i64 %20
  %26 = call fastcc ptr @build_vlc(ptr noundef %1, ptr noundef nonnull %25, ptr noundef %3) #15
  %27 = add nuw nsw i64 %indvars.iv, 1
  %28 = getelementptr inbounds nuw [10 x %struct.LevelCodes], ptr @lev, i64 0, i64 %27, i32 2
  store ptr %26, ptr %28, align 8, !tbaa !107
  %29 = add i32 %.013.ph, 1
  br label %.outer
}